                            * = $1900
1900   BA                   TSX
1901   8E 40 1A             STX $1A40
1904   A9 00                LDA #$00
1906   8D 20 00             STA $0020
1909   A9 7C                LDA #$7C
190B   8D 21 00             STA $0021
190E   A9 41                LDA #$41
1910   8D 00 00             STA $0000
1913   A9 1A                LDA #$1A
1915   8D 01 00             STA $0001
1918   A9 00                LDA #$00
191A   A8                   TAY
191B   4C 28 19             JMP L1928
191E   91 00      L191E     STA ($00),Y
1920   EE 00 00             INC $0000
1923   D0 03                BNE L1928
1925   EE 01 00             INC $0001
1928   AE 00 00   L1928     LDX $0000
192B   E0 44                CPX #$44
192D   D0 EF                BNE L191E
192F   AE 01 00             LDX $0001
1932   E0 1A                CPX #$1A
1934   D0 E8                BNE L191E
1936   20 44 19             JSR L1944
1939   AE 40 1A   L1939     LDX $1A40
193C   9A                   TXS
193D   AD 00 00             LDA $0000
1940   60                   RTS
1941   6C 00 00   L1941     JMP ($0000)
1944   A5 03      L1944     LDA $03
1946   48                   PHA
1947   A5 02                LDA $02
1949   48                   PHA
194A   A5 01                LDA $01
194C   48                   PHA
194D   A5 00                LDA $00
194F   48                   PHA
1950   A0 00                LDY #$00
1952   B9 34 1A   L1952     LDA $1A34,Y
1955   85 00                STA $00
1957   AA                   TAX
1958   B9 35 1A             LDA $1A35,Y
195B   85 01                STA $01
195D   D0 03                BNE L1962
195F   8A                   TXA
1960   F0 0B                BEQ L196D
1962   84 10      L1962     STY $10
1964   20 41 19             JSR L1941
1967   A4 10                LDY $10
1969   C8                   INY
196A   C8                   INY
196B   D0 E5                BNE L1952
196D   68         L196D     PLA
196E   85 00                STA $00
1970   68                   PLA
1971   85 01                STA $01
1973   68                   PLA
1974   85 02                STA $02
1976   68                   PLA
1977   85 03                STA $03
1979   20 E6 19             JSR L19E6
197C   85 00                STA $00
197E   86 01                STX $01
1980   AD 43 1A             LDA $1A43
1983   F0 01                BEQ L1986
1985   60                   RTS
1986   A5 01      L1986     LDA $01
1988   48                   PHA
1989   A5 00                LDA $00
198B   48                   PHA
198C   EE 43 1A             INC $1A43
198F   AD 41 1A             LDA $1A41
1992   AE 42 1A             LDX $1A42
1995   4C AE 19             JMP L19AE
1998   A0 02      L1998     LDY #$02
199A   B1 10                LDA ($10),Y
199C   85 00                STA $00
199E   C8                   INY
199F   B1 10                LDA ($10),Y
19A1   85 01                STA $01
19A3   20 41 19             JSR L1941
19A6   A0 01                LDY #$01
19A8   B1 10                LDA ($10),Y
19AA   AA                   TAX
19AB   88                   DEY
19AC   B1 10                LDA ($10),Y
19AE   85 10      L19AE     STA $10
19B0   A8                   TAY
19B1   86 11                STX $11
19B3   98                   TYA
19B4   D0 E2                BNE L1998
19B6   8A                   TXA
19B7   D0 DF                BNE L1998
19B9   F0 06                BEQ L19C1
19BB   A5 01                LDA $01
19BD   48                   PHA
19BE   A5 00                LDA $00
19C0   48                   PHA
19C1   AD 2E 1A   L19C1     LDA $1A2E
19C4   F0 17                BEQ L19DD
19C6   0A                   ASL A
19C7   A8                   TAY
19C8   B9 2E 1A   L19C8     LDA $1A2E,Y
19CB   85 00                STA $00
19CD   B9 2F 1A             LDA $1A2F,Y
19D0   85 01                STA $01
19D2   84 10                STY $10
19D4   20 41 19             JSR L1941
19D7   A4 10                LDY $10
19D9   88                   DEY
19DA   88                   DEY
19DB   D0 EB                BNE L19C8
19DD   68         L19DD     PLA
19DE   85 00                STA $00
19E0   68                   PLA
19E1   85 01                STA $01
19E3   4C 39 19             JMP L1939
19E6   20 1E 1A   L19E6     JSR L1A1E 
19E9   38                   SEC                             ;================ START
19EA   A5 20                LDA $20
19EC   E9 04                SBC #$04
19EE   85 20                STA $20
19F0   B0 02                BCS L19F4
19F2   C6 21                DEC $21
19F4   A5 01      L19F4     LDA $01
19F6   A0 01                LDY #$01
19F8   91 20                STA ($20),Y
19FA   A5 00                LDA $00
19FC   88                   DEY
19FD   91 20                STA ($20),Y
19FF   A5 03                LDA $03
1A01   A0 03                LDY #$03
1A03   91 20                STA ($20),Y
1A05   A5 02                LDA $02
1A07   88                   DEY
1A08   91 20                STA ($20),Y
1A0A   A2 00                LDX #$00
1A0C   A9 0A                LDA #$0A
1A0E   85 1F                STA $1F
1A10   18                   CLC
1A11   A5 20                LDA $20
1A13   69 04                ADC #$04
1A15   85 20                STA $20
1A17   90 02                BCC L1A1B
1A19   E6 21                INC $21
1A1B   A5 1F      L1A1B     LDA $1F
1A1D   60                   RTS
1A1E   A2 00      L1A1E     LDX #$00
1A20   86 01                STX $01
1A22   E8                   INX
1A23   86 00                STX $00
1A25   A9 3A                LDA #$3A
1A27   85 02                STA $02
1A29   A9 1A                LDA #$1A
1A2B   85 03                STA $03
1A2D   60                   RTS
1A2E   00                   BRK
1A2F   00                   BRK
1A30   00                   BRK
1A31   00                   BRK
1A32   00                   BRK
1A33   00                   BRK
1A34   00                   BRK
1A35   00                   BRK
1A36   6E 2F 61             ROR $612F
1A39   00                   BRK
1A3A   36 1A                ROL $1A,X
1A3C   39 1A 00             AND $001A,Y
1A3F   00                   BRK
1A40   00                   BRK
                            .END

;auto-generated symbols and labels
 L1928      $1928
 L1939      $1939
 L1941      $1941
 L1944      $1944
 L1952      $1952
 L1962      $1962
 L1986      $1986
 L1998      $1998
 L191E      $191E
 L196D      $196D
 L19E6      $19E6
 L19AE      $19AE
 L19C1      $19C1
 L19DD      $19DD
 L19C8      $19C8
 L1A1E      $1A1E
 L19F4      $19F4
 L1A1B      $1A1B


